(lp0
(isimple_universe.character
SimpleCharacter
p1
(dp3
S'prompt'
p4
S'\n> '
p5
sS'attachments'
p6
(lp7
(isimple_universe.simple_player_attachments
OOC_Commands
p8
(dp9
S'character'
p10
g1
sba(isimple_universe.simple_player_attachments
PlayerLegs
p11
(dp12
g10
g1
sba(isimple_universe.simple_player_attachments
PlayerEyes
p13
(dp14
g10
g1
sba(isimple_universe.simple_player_attachments
PlayerMouth
p15
(dp16
g10
g1
sba(isimple_universe.simple_player_attachments
PlayerArms
p17
(dp18
g10
g1
sbasS'disconnector'
p19
csimple_universe.character
disconnect
p20
sS'to_client'
p21
(lp22
S'Character created.'
p23
aS'Joining game...'
p24
aS'You are in a somewhat plain bedroom. A door to the north opens into a library, and french doors to the west open onto a balcony.'
p25
aS'You see here: a bronze clock.'
p26
aS'Exits lead: north, west.'
p27
asS'keywords'
p28
(lp29
S'quarath'
p30
asS'from_client'
p31
(lp32
sS'password'
p33
S'3044534d23be13ab05c45caa7c0f0f92'
p34
sS'pass_salt'
p35
S'216351005253550822364678851778665425726'
p36
sS'container'
p37
(lp38
I1
aI0
asS'name'
p39
S'Quarath'
p40
sS'client'
p41
I00
sS'inventory'
p42
(lp43
sS'containment'
p44
(lp45
(isimple_universe.thing
SimpleThing
p46
(dp47
g37
(isimple_universe.room
SimpleRoom
p48
(dp49
S'contents'
p50
g45
sS'ID'
p51
g38
sS'exits'
p52
(lp53
(lp54
S'north'
p55
aI1
aa(lp56
S'west'
p57
aI2
aasS'description'
p58
g25
sbsg39
S'a bronze clock'
p59
sS'short_description'
p60
g59
sS'takable'
p61
I01
sg44
g45
sg28
(lp62
S'clock'
p63
asg58
S'This is a large bronze clock, topped with a statue of an angel.'
p64
sbag1
asg60
g40
sS'logged_in'
p65
I01
sS'processor'
p66
csimple_universe.process
process
p67
sba.