(lp0
(isimple_universe.universe
SimpleCharacter
p1
(dp3
S'prompt'
p4
S'\n> '
p5
sS'attachments'
p6
(lp7
(isimple_universe.universe
OOC_Commands
p8
(dp9
S'character'
p10
g1
sba(isimple_universe.universe
PlayerLegs
p11
(dp12
g10
g1
sba(isimple_universe.universe
PlayerEyes
p13
(dp14
g10
g1
sba(isimple_universe.universe
PlayerMouth
p15
(dp16
g10
g1
sba(isimple_universe.universe
PlayerArms
p17
(dp18
g10
g1
sbasS'disconnector'
p19
csimple_universe.universe
disconnect
p20
sS'to_client'
p21
(lp22
sS'keywords'
p23
(lp24
S'sammy'
p25
asS'from_client'
p26
(lp27
sS'password'
p28
S'6739208a52e7a4ad7e77dc67d00c666d'
p29
sS'pass_salt'
p30
S'182229749202269539316475465209664767320'
p31
sS'container'
p32
(lp33
I2
aI4
asS'name'
p34
S'Sammy'
p35
sS'client'
p36
I00
sS'inventory'
p37
(lp38
sS'containment'
p39
(lp40
g1
asS'short_description'
p41
g35
sS'logged_in'
p42
I01
sS'processor'
p43
csimple_universe.universe
process
p44
sba.